; Function Attrs: mustprogress nofree norecurse nosync nounwind willreturn memory(argmem: write) uwtable
define noundef nonnull align 8 dereferenceable(225) ptr @_ZN8QuantLib7MakeOIS22withFixedLegEndOfMonthEb(ptr noundef nonnull returned writeonly align 8 dereferenceable(225) %this, i1 noundef zeroext %flag) local_unnamed_addr #13 align 2 {
entry:
  %storedv = zext i1 %flag to i8
  %fixedEndOfMonth_ = getelementptr inbounds nuw i8, ptr %this, i64 152
  store i8 %storedv, ptr %fixedEndOfMonth_, align 8, !tbaa !80
  %isDefaultEOM_ = getelementptr inbounds nuw i8, ptr %this, i64 154
  store i8 0, ptr %isDefaultEOM_, align 2, !tbaa !66
  ret ptr %this
}